; Function Attrs: nounwind uwtable
define ptr @l___private_Lean_Data_Lsp_Utf16_0__Lean_FileMap_lineStartPos(ptr noundef readonly captures(none) %0, ptr noundef %1) local_unnamed_addr #1 {
  %3 = getelementptr inbounds nuw i8, ptr %0, i64 16
  %4 = load ptr, ptr %3, align 8, !tbaa !14
  %5 = getelementptr i8, ptr %4, i64 8
  %.val = load i64, ptr %5, align 8, !tbaa !12
  %6 = shl i64 %.val, 1
  %7 = or disjoint i64 %6, 1
  %8 = inttoptr i64 %7 to ptr
  %9 = ptrtoint ptr %1 to i64
  %10 = and i64 %9, 1
  %.not = icmp eq i64 %10, 0
  br i1 %.not, label %lean_dec.exit, label %11, !prof !11

11:                                               ; preds = %2
  %12 = icmp ult ptr %1, %8
  br i1 %12, label %20, label %14

lean_dec.exit:                                    ; preds = %2
  %13 = tail call zeroext i1 @lean_nat_big_lt(ptr noundef %1, ptr noundef nonnull %8) #4
  br i1 %13, label %20, label %14

14:                                               ; preds = %11, %lean_dec.exit
  %15 = tail call zeroext i8 @l_Array_isEmpty___rarg(ptr noundef nonnull %4) #4
  %16 = icmp eq i8 %15, 0
  br i1 %16, label %17, label %lean_array_fget.exit

17:                                               ; preds = %14
  %18 = load ptr, ptr @l_instInhabitedPos, align 8, !tbaa !14
  %19 = tail call ptr @l_Array_back_x21___rarg(ptr noundef %18, ptr noundef nonnull %4) #4
  br label %lean_array_fget.exit

20:                                               ; preds = %11, %lean_dec.exit
  %21 = lshr i64 %9, 1
  %22 = getelementptr inbounds nuw i8, ptr %4, i64 24
  %23 = getelementptr inbounds nuw [0 x ptr], ptr %22, i64 0, i64 %21
  %24 = load ptr, ptr %23, align 8, !tbaa !14
  %25 = ptrtoint ptr %24 to i64
  %26 = and i64 %25, 1
  %.not.i.i = icmp eq i64 %26, 0
  br i1 %.not.i.i, label %27, label %lean_array_fget.exit

27:                                               ; preds = %20
  %.val.i.i.i = load i32, ptr %24, align 4, !tbaa !4
  %28 = icmp sgt i32 %.val.i.i.i, 0
  br i1 %28, label %29, label %31, !prof !9

29:                                               ; preds = %27
  %30 = add nuw i32 %.val.i.i.i, 1
  store i32 %30, ptr %24, align 4, !tbaa !4
  br label %lean_array_fget.exit

31:                                               ; preds = %27
  %.not.i.i.i = icmp eq i32 %.val.i.i.i, 0
  br i1 %.not.i.i.i, label %lean_array_fget.exit, label %32

32:                                               ; preds = %31
  tail call void @lean_inc_ref_cold(ptr noundef nonnull %24) #4
  br label %lean_array_fget.exit

lean_array_fget.exit:                             ; preds = %32, %31, %29, %20, %14, %17
  %.1 = phi ptr [ %19, %17 ], [ inttoptr (i64 1 to ptr), %14 ], [ %24, %20 ], [ %24, %29 ], [ %24, %31 ], [ %24, %32 ]
  ret ptr %.1
}